target datalayout = "e-m:e-p270:32:32-p271:32:32-p272:64:64-i64:64-i128:128-f80:128-n8:16:32:64-S128"
target triple = "x86_64-pc-linux-gnu"

; Function Attrs: mustprogress nounwind uwtable
define hidden void @_ZN10duckdb_re26Regexp4SwapEPS0_(ptr noundef nonnull align 8 dereferenceable(40) %0, ptr noundef %1) #0 align 2 {
  %3 = alloca ptr, align 8
  %4 = alloca ptr, align 8
  %5 = alloca [40 x i8], align 16
  %6 = alloca ptr, align 8
  %7 = alloca ptr, align 8
  store ptr %0, ptr %3, align 8, !tbaa !3
  store ptr %1, ptr %4, align 8, !tbaa !3
  %8 = load ptr, ptr %3, align 8
  call void @llvm.lifetime.start.p0(i64 40, ptr %5) #18
  call void @llvm.lifetime.start.p0(i64 8, ptr %6) #18
  store ptr %8, ptr %6, align 8, !tbaa !69
  call void @llvm.lifetime.start.p0(i64 8, ptr %7) #18
  %9 = load ptr, ptr %4, align 8, !tbaa !3
  store ptr %9, ptr %7, align 8, !tbaa !69
  %10 = getelementptr inbounds [40 x i8], ptr %5, i64 0, i64 0
  %11 = load ptr, ptr %6, align 8, !tbaa !69
  call void @llvm.memmove.p0.p0.i64(ptr align 16 %10, ptr align 1 %11, i64 40, i1 false)
  %12 = load ptr, ptr %6, align 8, !tbaa !69
  %13 = load ptr, ptr %7, align 8, !tbaa !69
  call void @llvm.memmove.p0.p0.i64(ptr align 1 %12, ptr align 1 %13, i64 40, i1 false)
  %14 = load ptr, ptr %7, align 8, !tbaa !69
  %15 = getelementptr inbounds [40 x i8], ptr %5, i64 0, i64 0
  call void @llvm.memmove.p0.p0.i64(ptr align 1 %14, ptr align 16 %15, i64 40, i1 false)
  call void @llvm.lifetime.end.p0(i64 8, ptr %7) #18
  call void @llvm.lifetime.end.p0(i64 8, ptr %6) #18
  call void @llvm.lifetime.end.p0(i64 40, ptr %5) #18
  ret void
}