; Function Attrs: mustprogress nofree norecurse nosync nounwind willreturn memory(argmem: readwrite) uwtable
define hidden void @_ZN10duckdb_re26Regexp4SwapEPS0_(ptr noundef nonnull align 8 captures(none) dereferenceable(40) %0, ptr noundef captures(none) %1) local_unnamed_addr #11 align 2 {
  %3 = alloca [40 x i8], align 16
  call void @llvm.lifetime.start.p0(i64 40, ptr nonnull %3)
  call void @llvm.memcpy.p0.p0.i64(ptr noundef nonnull align 16 dereferenceable(40) %3, ptr noundef nonnull align 8 dereferenceable(40) %0, i64 40, i1 false)
  tail call void @llvm.memmove.p0.p0.i64(ptr noundef nonnull align 8 dereferenceable(40) %0, ptr noundef nonnull align 1 dereferenceable(40) %1, i64 40, i1 false)
  call void @llvm.memcpy.p0.p0.i64(ptr noundef nonnull align 1 dereferenceable(40) %1, ptr noundef nonnull align 16 dereferenceable(40) %3, i64 40, i1 false)
  call void @llvm.lifetime.end.p0(i64 40, ptr nonnull %3)
  ret void
}